; Function Attrs: mustprogress nofree norecurse nosync nounwind willreturn memory(argmem: read) uwtable
define internal noundef zeroext i1 @_ZNK12_GLOBAL__N_114Eq256MatcherP2IN4absl7uint128EiE10gmock_ImplIRKNS1_15random_internal4U256EE15MatchAndExplainES8_PN7testing19MatchResultListenerE(ptr noundef nonnull readonly align 16 captures(none) dereferenceable(36) %0, ptr noundef nonnull readonly align 16 captures(none) dereferenceable(32) %1, ptr readnone captures(none) %2) unnamed_addr #12 align 2 {
  %.sroa.03.0.copyload = load i64, ptr %1, align 16, !tbaa !133
  %.sroa.24.0..sroa_idx = getelementptr inbounds nuw i8, ptr %1, i64 8
  %.sroa.24.0.copyload = load i64, ptr %.sroa.24.0..sroa_idx, align 8, !tbaa !133
  %4 = getelementptr inbounds nuw i8, ptr %0, i64 16
  %.sroa.01.0.copyload = load i64, ptr %4, align 16, !tbaa !133
  %.sroa.22.0..sroa_idx = getelementptr inbounds nuw i8, ptr %0, i64 24
  %.sroa.22.0.copyload = load i64, ptr %.sroa.22.0..sroa_idx, align 8, !tbaa !133
  %.sroa.22.0.insert.ext.i = zext i64 %.sroa.24.0.copyload to i128
  %.sroa.22.0.insert.shift.i = shl nuw i128 %.sroa.22.0.insert.ext.i, 64
  %.sroa.01.0.insert.ext.i = zext i64 %.sroa.03.0.copyload to i128
  %.sroa.01.0.insert.insert.i = or disjoint i128 %.sroa.22.0.insert.shift.i, %.sroa.01.0.insert.ext.i
  %.sroa.2.0.insert.ext.i = zext i64 %.sroa.22.0.copyload to i128
  %.sroa.2.0.insert.shift.i = shl nuw i128 %.sroa.2.0.insert.ext.i, 64
  %.sroa.0.0.insert.ext.i = zext i64 %.sroa.01.0.copyload to i128
  %.sroa.0.0.insert.insert.i = or disjoint i128 %.sroa.2.0.insert.shift.i, %.sroa.0.0.insert.ext.i
  %5 = icmp eq i128 %.sroa.01.0.insert.insert.i, %.sroa.0.0.insert.insert.i
  br i1 %5, label %6, label %13

6:                                                ; preds = %3
  %7 = getelementptr inbounds nuw i8, ptr %1, i64 16
  %.sroa.0.0.copyload = load i64, ptr %7, align 16, !tbaa !133
  %.sroa.2.0..sroa_idx = getelementptr inbounds nuw i8, ptr %1, i64 24
  %.sroa.2.0.copyload = load i64, ptr %.sroa.2.0..sroa_idx, align 8, !tbaa !133
  %8 = getelementptr inbounds nuw i8, ptr %0, i64 32
  %9 = load i32, ptr %8, align 16, !tbaa !134
  %10 = sext i32 %9 to i64
  %.lobit.i = ashr i32 %9, 31
  %11 = sext i32 %.lobit.i to i64
  %.sroa.22.0.insert.ext.i7 = zext i64 %.sroa.2.0.copyload to i128
  %.sroa.22.0.insert.shift.i8 = shl nuw i128 %.sroa.22.0.insert.ext.i7, 64
  %.sroa.01.0.insert.ext.i9 = zext i64 %.sroa.0.0.copyload to i128
  %.sroa.01.0.insert.insert.i10 = or disjoint i128 %.sroa.22.0.insert.shift.i8, %.sroa.01.0.insert.ext.i9
  %.sroa.2.0.insert.ext.i11 = zext i64 %11 to i128
  %.sroa.2.0.insert.shift.i12 = shl nuw i128 %.sroa.2.0.insert.ext.i11, 64
  %.sroa.0.0.insert.ext.i13 = zext i64 %10 to i128
  %.sroa.0.0.insert.insert.i14 = or disjoint i128 %.sroa.2.0.insert.shift.i12, %.sroa.0.0.insert.ext.i13
  %12 = icmp eq i128 %.sroa.01.0.insert.insert.i10, %.sroa.0.0.insert.insert.i14
  br label %13

13:                                               ; preds = %6, %3
  %14 = phi i1 [ false, %3 ], [ %12, %6 ]
  ret i1 %14
}